target datalayout = "e-m:e-p270:32:32-p271:32:32-p272:64:64-i64:64-i128:128-f80:128-n8:16:32:64-S128"
target triple = "x86_64-pc-linux-gnu"

%class.TransTableS = type <{ %class.TransTable, [14 x i64], %"struct.TransTableS::statsResetsType", [4 x i8], [5 x %"struct.TransTableS::winCardType"], i32, i32, i64, i64, i64, i32, i32, i32, i32, i32, i8, [3 x i8], i32, [4 x i8], ptr, [14 x [4 x ptr]], ptr, ptr, [14 x [4 x ptr]], ptr, ptr, [14 x [4 x ptr]], i32, i32, [14 x [4 x i32]], [14 x [4 x i32]], %"class.std::vector", [14 x i64], i32, [4 x i8] }>
%class.TransTable = type { ptr }
%"struct.TransTableS::statsResetsType" = type { i32, [6 x i32] }
%"struct.TransTableS::winCardType" = type { i32, i32, ptr, ptr, ptr, ptr }
%"class.std::vector" = type { %"struct.std::_Vector_base" }
%"struct.std::_Vector_base" = type { %"struct.std::_Vector_base<std::__cxx11::basic_string<char>, std::allocator<std::__cxx11::basic_string<char>>>::_Vector_impl" }
%"struct.std::_Vector_base<std::__cxx11::basic_string<char>, std::allocator<std::__cxx11::basic_string<char>>>::_Vector_impl" = type { %"struct.std::_Vector_base<std::__cxx11::basic_string<char>, std::allocator<std::__cxx11::basic_string<char>>>::_Vector_impl_data" }
%"struct.std::_Vector_base<std::__cxx11::basic_string<char>, std::allocator<std::__cxx11::basic_string<char>>>::_Vector_impl_data" = type { ptr, ptr, ptr }
%"class.std::__cxx11::basic_string" = type { %"struct.std::__cxx11::basic_string<char>::_Alloc_hider", i64, %union.anon }
%"struct.std::__cxx11::basic_string<char>::_Alloc_hider" = type { ptr }
%union.anon = type { i64, [8 x i8] }
%"struct.std::_Setw" = type { i32 }

@.str.8 = private unnamed_addr constant [2 x i8] c"\0A\00", align 1
@.str.11 = private unnamed_addr constant [22 x i8] c"Total no. of resets: \00", align 1
@.str.12 = private unnamed_addr constant [7 x i8] c"Reason\00", align 1
@.str.13 = private unnamed_addr constant [6 x i8] c"Count\00", align 1

; Function Attrs: mustprogress nounwind uwtable
define linkonce_odr noundef nonnull align 8 dereferenceable(32) ptr @_ZNKSt6vectorINSt7__cxx1112basic_stringIcSt11char_traitsIcESaIcEEESaIS5_EEixEm(ptr noundef nonnull align 8 dereferenceable(24) %0, i64 noundef %1) #5 comdat align 2 {
  %3 = alloca ptr, align 8
  %4 = alloca i64, align 8
  store ptr %0, ptr %3, align 8
  store i64 %1, ptr %4, align 8
  %5 = load ptr, ptr %3, align 8
  %6 = getelementptr inbounds nuw %"struct.std::_Vector_base", ptr %5, i32 0, i32 0
  %7 = getelementptr inbounds nuw %"struct.std::_Vector_base<std::__cxx11::basic_string<char>, std::allocator<std::__cxx11::basic_string<char>>>::_Vector_impl_data", ptr %6, i32 0, i32 0
  %8 = load ptr, ptr %7, align 8
  %9 = load i64, ptr %4, align 8
  %10 = getelementptr inbounds %"class.std::__cxx11::basic_string", ptr %8, i64 %9
  ret ptr %10
}

; Function Attrs: mustprogress nounwind uwtable
define linkonce_odr i32 @_ZSt4setwi(i32 noundef %0) #5 comdat {
  %2 = alloca %"struct.std::_Setw", align 4
  %3 = alloca i32, align 4
  store i32 %0, ptr %3, align 4
  %4 = getelementptr inbounds nuw %"struct.std::_Setw", ptr %2, i32 0, i32 0
  %5 = load i32, ptr %3, align 4
  store i32 %5, ptr %4, align 4
  %6 = getelementptr inbounds nuw %"struct.std::_Setw", ptr %2, i32 0, i32 0
  %7 = load i32, ptr %6, align 4
  ret i32 %7
}

; Function Attrs: mustprogress uwtable
define void @_ZNK11TransTableS15PrintResetStatsERSt14basic_ofstreamIcSt11char_traitsIcEE(ptr noundef nonnull align 8 dereferenceable(2396) %0, ptr noundef nonnull align 8 dereferenceable(248) %1) unnamed_addr #4 align 2 {
  %3 = alloca ptr, align 8
  %4 = alloca ptr, align 8
  %5 = alloca %"struct.std::_Setw", align 4
  %6 = alloca %"struct.std::_Setw", align 4
  %7 = alloca i32, align 4
  %8 = alloca %"struct.std::_Setw", align 4
  %9 = alloca %"struct.std::_Setw", align 4
  store ptr %0, ptr %3, align 8
  store ptr %1, ptr %4, align 8
  %10 = load ptr, ptr %3, align 8
  %11 = load ptr, ptr %4, align 8
  %12 = call noundef nonnull align 8 dereferenceable(8) ptr @_ZStlsISt11char_traitsIcEERSt13basic_ostreamIcT_ES5_PKc(ptr noundef nonnull align 8 dereferenceable(8) %11, ptr noundef @.str.11)
  %13 = getelementptr inbounds nuw %class.TransTableS, ptr %10, i32 0, i32 2
  %14 = getelementptr inbounds nuw %"struct.TransTableS::statsResetsType", ptr %13, i32 0, i32 0
  %15 = load i32, ptr %14, align 8
  %16 = call noundef nonnull align 8 dereferenceable(8) ptr @_ZNSolsEi(ptr noundef nonnull align 8 dereferenceable(8) %12, i32 noundef %15)
  %17 = call noundef nonnull align 8 dereferenceable(8) ptr @_ZStlsISt11char_traitsIcEERSt13basic_ostreamIcT_ES5_PKc(ptr noundef nonnull align 8 dereferenceable(8) %16, ptr noundef @.str.8)
  %18 = call noundef nonnull align 8 dereferenceable(8) ptr @_ZNSolsEPFRSoS_E(ptr noundef nonnull align 8 dereferenceable(8) %17, ptr noundef @_ZSt4endlIcSt11char_traitsIcEERSt13basic_ostreamIT_T0_ES6_)
  %19 = load ptr, ptr %4, align 8
  %20 = call i32 @_ZSt4setwi(i32 noundef 18)
  %21 = getelementptr inbounds nuw %"struct.std::_Setw", ptr %5, i32 0, i32 0
  store i32 %20, ptr %21, align 4
  %22 = getelementptr inbounds nuw %"struct.std::_Setw", ptr %5, i32 0, i32 0
  %23 = load i32, ptr %22, align 4
  %24 = call noundef nonnull align 8 dereferenceable(8) ptr @_ZStlsIcSt11char_traitsIcEERSt13basic_ostreamIT_T0_ES6_St5_Setw(ptr noundef nonnull align 8 dereferenceable(8) %19, i32 %23)
  %25 = call noundef nonnull align 8 dereferenceable(8) ptr @_ZNSolsEPFRSt8ios_baseS0_E(ptr noundef nonnull align 8 dereferenceable(8) %24, ptr noundef @_ZSt4leftRSt8ios_base)
  %26 = call noundef nonnull align 8 dereferenceable(8) ptr @_ZStlsISt11char_traitsIcEERSt13basic_ostreamIcT_ES5_PKc(ptr noundef nonnull align 8 dereferenceable(8) %25, ptr noundef @.str.12)
  %27 = call i32 @_ZSt4setwi(i32 noundef 6)
  %28 = getelementptr inbounds nuw %"struct.std::_Setw", ptr %6, i32 0, i32 0
  store i32 %27, ptr %28, align 4
  %29 = getelementptr inbounds nuw %"struct.std::_Setw", ptr %6, i32 0, i32 0
  %30 = load i32, ptr %29, align 4
  %31 = call noundef nonnull align 8 dereferenceable(8) ptr @_ZStlsIcSt11char_traitsIcEERSt13basic_ostreamIT_T0_ES6_St5_Setw(ptr noundef nonnull align 8 dereferenceable(8) %26, i32 %30)
  %32 = call noundef nonnull align 8 dereferenceable(8) ptr @_ZNSolsEPFRSt8ios_baseS0_E(ptr noundef nonnull align 8 dereferenceable(8) %31, ptr noundef @_ZSt5rightRSt8ios_base)
  %33 = call noundef nonnull align 8 dereferenceable(8) ptr @_ZStlsISt11char_traitsIcEERSt13basic_ostreamIcT_ES5_PKc(ptr noundef nonnull align 8 dereferenceable(8) %32, ptr noundef @.str.13)
  %34 = call noundef nonnull align 8 dereferenceable(8) ptr @_ZStlsISt11char_traitsIcEERSt13basic_ostreamIcT_ES5_PKc(ptr noundef nonnull align 8 dereferenceable(8) %33, ptr noundef @.str.8)
  store i32 0, ptr %7, align 4
  br label %35

35:                                               ; preds = %65, %2
  %36 = load i32, ptr %7, align 4
  %37 = icmp ult i32 %36, 6
  br i1 %37, label %38, label %68

38:                                               ; preds = %35
  %39 = load ptr, ptr %4, align 8
  %40 = call i32 @_ZSt4setwi(i32 noundef 18)
  %41 = getelementptr inbounds nuw %"struct.std::_Setw", ptr %8, i32 0, i32 0
  store i32 %40, ptr %41, align 4
  %42 = getelementptr inbounds nuw %"struct.std::_Setw", ptr %8, i32 0, i32 0
  %43 = load i32, ptr %42, align 4
  %44 = call noundef nonnull align 8 dereferenceable(8) ptr @_ZStlsIcSt11char_traitsIcEERSt13basic_ostreamIT_T0_ES6_St5_Setw(ptr noundef nonnull align 8 dereferenceable(8) %39, i32 %43)
  %45 = call noundef nonnull align 8 dereferenceable(8) ptr @_ZNSolsEPFRSt8ios_baseS0_E(ptr noundef nonnull align 8 dereferenceable(8) %44, ptr noundef @_ZSt4leftRSt8ios_base)
  %46 = getelementptr inbounds nuw %class.TransTableS, ptr %10, i32 0, i32 31
  %47 = load i32, ptr %7, align 4
  %48 = zext i32 %47 to i64
  %49 = call noundef nonnull align 8 dereferenceable(32) ptr @_ZNKSt6vectorINSt7__cxx1112basic_stringIcSt11char_traitsIcESaIcEEESaIS5_EEixEm(ptr noundef nonnull align 8 dereferenceable(24) %46, i64 noundef %48) #3
  %50 = call noundef nonnull align 8 dereferenceable(8) ptr @_ZStlsIcSt11char_traitsIcESaIcEERSt13basic_ostreamIT_T0_ES7_RKNSt7__cxx1112basic_stringIS4_S5_T1_EE(ptr noundef nonnull align 8 dereferenceable(8) %45, ptr noundef nonnull align 8 dereferenceable(32) %49)
  %51 = call i32 @_ZSt4setwi(i32 noundef 6)
  %52 = getelementptr inbounds nuw %"struct.std::_Setw", ptr %9, i32 0, i32 0
  store i32 %51, ptr %52, align 4
  %53 = getelementptr inbounds nuw %"struct.std::_Setw", ptr %9, i32 0, i32 0
  %54 = load i32, ptr %53, align 4
  %55 = call noundef nonnull align 8 dereferenceable(8) ptr @_ZStlsIcSt11char_traitsIcEERSt13basic_ostreamIT_T0_ES6_St5_Setw(ptr noundef nonnull align 8 dereferenceable(8) %50, i32 %54)
  %56 = call noundef nonnull align 8 dereferenceable(8) ptr @_ZNSolsEPFRSt8ios_baseS0_E(ptr noundef nonnull align 8 dereferenceable(8) %55, ptr noundef @_ZSt5rightRSt8ios_base)
  %57 = getelementptr inbounds nuw %class.TransTableS, ptr %10, i32 0, i32 2
  %58 = getelementptr inbounds nuw %"struct.TransTableS::statsResetsType", ptr %57, i32 0, i32 1
  %59 = load i32, ptr %7, align 4
  %60 = zext i32 %59 to i64
  %61 = getelementptr inbounds [6 x i32], ptr %58, i64 0, i64 %60
  %62 = load i32, ptr %61, align 4
  %63 = call noundef nonnull align 8 dereferenceable(8) ptr @_ZNSolsEi(ptr noundef nonnull align 8 dereferenceable(8) %56, i32 noundef %62)
  %64 = call noundef nonnull align 8 dereferenceable(8) ptr @_ZStlsISt11char_traitsIcEERSt13basic_ostreamIcT_ES5_PKc(ptr noundef nonnull align 8 dereferenceable(8) %63, ptr noundef @.str.8)
  br label %65

65:                                               ; preds = %38
  %66 = load i32, ptr %7, align 4
  %67 = add i32 %66, 1
  store i32 %67, ptr %7, align 4
  br label %35, !llvm.loop !42

68:                                               ; preds = %35
  ret void
}